target datalayout = "e-m:e-p270:32:32-p271:32:32-p272:64:64-i64:64-i128:128-f80:128-n8:16:32:64-S128"
target triple = "x86_64-pc-linux-gnu"

%struct.AVFormatContext = type { ptr, ptr, ptr, ptr, ptr, i32, i32, ptr, i32, ptr, i32, ptr, ptr, i64, i64, i64, i32, i32, i32, i64, i64, ptr, i32, i32, ptr, i32, i32, i32, i32, ptr, i64, i32, i32, %struct.AVIOInterruptCB, i32, i32, i32, i32, i64, i32, i32, i32, i32, i32, i32, i32, i32, i32, i32, i32, i32, i64, i32, i32, i32, i32, i32, ptr, ptr, ptr, ptr, i32, ptr, ptr, ptr, ptr, i32, ptr, ptr, i64, ptr, ptr, ptr, i64 }
%struct.AVIOInterruptCB = type { ptr, ptr }
%struct.video_data = type { ptr, i32, i32, i32, i32, i32, i32, i32, i32, ptr, i64, i32, i32, i32, i32, ptr, ptr, ptr, i64, i32, ptr, i32, i32, ptr, i32, ptr, ptr, ptr, ptr, ptr, ptr, ptr }
%struct.v4l2_plane = type { i32, i32, %union.anon.6, i32, [11 x i32] }
%union.anon.6 = type { i64 }
%struct.v4l2_buffer = type { i32, i32, i32, i32, i32, %struct.timeval, %struct.v4l2_timecode, i32, i32, %union.anon.7, i32, i32, %union.anon.8 }
%struct.timeval = type { i64, i64 }
%struct.v4l2_timecode = type { i32, i32, i8, i8, i8, i8, [4 x i8] }
%union.anon.7 = type { i64 }
%union.anon.8 = type { i32 }

@.str.93 = private unnamed_addr constant [24 x i8] c"ioctl(VIDIOC_QBUF): %s\0A\00", align 1
@.str.94 = private unnamed_addr constant [28 x i8] c"ioctl(VIDIOC_STREAMON): %s\0A\00", align 1

; Function Attrs: inlinehint nounwind uwtable
define internal ptr @av_make_error_string(ptr noundef %0, i64 noundef %1, i32 noundef %2) #5 {
  %4 = alloca ptr, align 8
  %5 = alloca i64, align 8
  %6 = alloca i32, align 4
  store ptr %0, ptr %4, align 8, !tbaa !102
  store i64 %1, ptr %5, align 8, !tbaa !113
  store i32 %2, ptr %6, align 4, !tbaa !32
  %7 = load i32, ptr %6, align 4, !tbaa !32
  %8 = load ptr, ptr %4, align 8, !tbaa !102
  %9 = load i64, ptr %5, align 8, !tbaa !113
  %10 = call i32 @av_strerror(i32 noundef %7, ptr noundef %8, i64 noundef %9)
  %11 = load ptr, ptr %4, align 8, !tbaa !102
  ret ptr %11
}

; Function Attrs: nounwind uwtable
define internal i32 @mmap_start(ptr noundef %0) #0 {
  %2 = alloca i32, align 4
  %3 = alloca ptr, align 8
  %4 = alloca ptr, align 8
  %5 = alloca i32, align 4
  %6 = alloca i32, align 4
  %7 = alloca i32, align 4
  %8 = alloca [8 x %struct.v4l2_plane], align 16
  %9 = alloca %struct.v4l2_buffer, align 8
  %10 = alloca [64 x i8], align 1
  %11 = alloca i32, align 4
  %12 = alloca i32, align 4
  %13 = alloca [64 x i8], align 1
  store ptr %0, ptr %3, align 8, !tbaa !13
  call void @llvm.lifetime.start.p0(i64 8, ptr %4) #10
  %14 = load ptr, ptr %3, align 8, !tbaa !13
  %15 = getelementptr inbounds nuw %struct.AVFormatContext, ptr %14, i32 0, i32 3
  %16 = load ptr, ptr %15, align 8, !tbaa !15
  store ptr %16, ptr %4, align 8, !tbaa !30
  call void @llvm.lifetime.start.p0(i64 4, ptr %5) #10
  call void @llvm.lifetime.start.p0(i64 4, ptr %6) #10
  call void @llvm.lifetime.start.p0(i64 4, ptr %7) #10
  store i32 0, ptr %6, align 4, !tbaa !32
  br label %17

17:                                               ; preds = %78, %1
  %18 = load i32, ptr %6, align 4, !tbaa !32
  %19 = load ptr, ptr %4, align 8, !tbaa !30
  %20 = getelementptr inbounds nuw %struct.video_data, ptr %19, i32 0, i32 13
  %21 = load i32, ptr %20, align 8, !tbaa !87
  %22 = icmp slt i32 %18, %21
  br i1 %22, label %23, label %81

23:                                               ; preds = %17
  call void @llvm.lifetime.start.p0(i64 512, ptr %8) #10
  call void @llvm.lifetime.start.p0(i64 88, ptr %9) #10
  %24 = getelementptr inbounds nuw %struct.v4l2_buffer, ptr %9, i32 0, i32 0
  %25 = load i32, ptr %6, align 4, !tbaa !32
  store i32 %25, ptr %24, align 8, !tbaa !153
  %26 = getelementptr inbounds nuw %struct.v4l2_buffer, ptr %9, i32 0, i32 1
  %27 = load ptr, ptr %4, align 8, !tbaa !30
  %28 = getelementptr inbounds nuw %struct.video_data, ptr %27, i32 0, i32 12
  %29 = load i32, ptr %28, align 4, !tbaa !59
  store i32 %29, ptr %26, align 4, !tbaa !157
  %30 = getelementptr inbounds nuw %struct.v4l2_buffer, ptr %9, i32 0, i32 2
  store i32 0, ptr %30, align 8, !tbaa !158
  %31 = getelementptr inbounds nuw %struct.v4l2_buffer, ptr %9, i32 0, i32 3
  store i32 0, ptr %31, align 4, !tbaa !159
  %32 = getelementptr inbounds nuw %struct.v4l2_buffer, ptr %9, i32 0, i32 4
  store i32 0, ptr %32, align 8, !tbaa !160
  %33 = getelementptr i8, ptr %9, i64 20
  call void @llvm.memset.p0.i64(ptr align 4 %33, i8 0, i64 4, i1 false)
  %34 = getelementptr inbounds nuw %struct.v4l2_buffer, ptr %9, i32 0, i32 5
  call void @llvm.memset.p0.i64(ptr align 8 %34, i8 0, i64 16, i1 false)
  %35 = getelementptr inbounds nuw %struct.v4l2_buffer, ptr %9, i32 0, i32 6
  call void @llvm.memset.p0.i64(ptr align 8 %35, i8 0, i64 16, i1 false)
  %36 = getelementptr inbounds nuw %struct.v4l2_buffer, ptr %9, i32 0, i32 7
  store i32 0, ptr %36, align 8, !tbaa !161
  %37 = getelementptr inbounds nuw %struct.v4l2_buffer, ptr %9, i32 0, i32 8
  store i32 1, ptr %37, align 4, !tbaa !162
  %38 = getelementptr inbounds nuw %struct.v4l2_buffer, ptr %9, i32 0, i32 9
  %39 = load ptr, ptr %4, align 8, !tbaa !30
  %40 = getelementptr inbounds nuw %struct.video_data, ptr %39, i32 0, i32 11
  %41 = load i32, ptr %40, align 8, !tbaa !112
  %42 = icmp ne i32 %41, 0
  br i1 %42, label %43, label %45

43:                                               ; preds = %23
  %44 = getelementptr inbounds [8 x %struct.v4l2_plane], ptr %8, i64 0, i64 0
  br label %46

45:                                               ; preds = %23
  br label %46

46:                                               ; preds = %45, %43
  %47 = phi ptr [ %44, %43 ], [ null, %45 ]
  store ptr %47, ptr %38, align 8, !tbaa !62
  %48 = getelementptr inbounds nuw %struct.v4l2_buffer, ptr %9, i32 0, i32 10
  %49 = load ptr, ptr %4, align 8, !tbaa !30
  %50 = getelementptr inbounds nuw %struct.video_data, ptr %49, i32 0, i32 11
  %51 = load i32, ptr %50, align 8, !tbaa !112
  %52 = icmp ne i32 %51, 0
  %53 = select i1 %52, i32 8, i32 0
  store i32 %53, ptr %48, align 8, !tbaa !163
  %54 = getelementptr inbounds nuw %struct.v4l2_buffer, ptr %9, i32 0, i32 11
  store i32 0, ptr %54, align 4, !tbaa !164
  %55 = getelementptr inbounds nuw %struct.v4l2_buffer, ptr %9, i32 0, i32 12
  call void @llvm.memset.p0.i64(ptr align 8 %55, i8 0, i64 4, i1 false)
  %56 = getelementptr i8, ptr %9, i64 84
  call void @llvm.memset.p0.i64(ptr align 4 %56, i8 0, i64 4, i1 false)
  %57 = load ptr, ptr %4, align 8, !tbaa !30
  %58 = getelementptr inbounds nuw %struct.video_data, ptr %57, i32 0, i32 28
  %59 = load ptr, ptr %58, align 8, !tbaa !42
  %60 = load ptr, ptr %4, align 8, !tbaa !30
  %61 = getelementptr inbounds nuw %struct.video_data, ptr %60, i32 0, i32 1
  %62 = load i32, ptr %61, align 8, !tbaa !36
  %63 = call i32 (i32, i64, ...) %59(i32 noundef %62, i64 noundef 3227014671, ptr noundef %9)
  %64 = icmp slt i32 %63, 0
  br i1 %64, label %65, label %74

65:                                               ; preds = %46
  %66 = call ptr @__errno_location() #11
  %67 = load i32, ptr %66, align 4, !tbaa !32
  %68 = sub nsw i32 0, %67
  store i32 %68, ptr %7, align 4, !tbaa !32
  %69 = load ptr, ptr %3, align 8, !tbaa !13
  call void @llvm.memset.p0.i64(ptr align 1 %10, i8 0, i64 64, i1 false)
  %70 = getelementptr inbounds [64 x i8], ptr %10, i64 0, i64 0
  %71 = load i32, ptr %7, align 4, !tbaa !32
  %72 = call ptr @av_make_error_string(ptr noundef %70, i64 noundef 64, i32 noundef %71)
  call void (ptr, i32, ptr, ...) @av_log(ptr noundef %69, i32 noundef 16, ptr noundef @.str.93, ptr noundef %72)
  %73 = load i32, ptr %7, align 4, !tbaa !32
  store i32 %73, ptr %2, align 4
  store i32 1, ptr %11, align 4
  br label %75

74:                                               ; preds = %46
  store i32 0, ptr %11, align 4
  br label %75

75:                                               ; preds = %74, %65
  call void @llvm.lifetime.end.p0(i64 88, ptr %9) #10
  call void @llvm.lifetime.end.p0(i64 512, ptr %8) #10
  %76 = load i32, ptr %11, align 4
  switch i32 %76, label %109 [
    i32 0, label %77
  ]

77:                                               ; preds = %75
  br label %78

78:                                               ; preds = %77
  %79 = load i32, ptr %6, align 4, !tbaa !32
  %80 = add nsw i32 %79, 1
  store i32 %80, ptr %6, align 4, !tbaa !32
  br label %17, !llvm.loop !168

81:                                               ; preds = %17
  %82 = load ptr, ptr %4, align 8, !tbaa !30
  %83 = getelementptr inbounds nuw %struct.video_data, ptr %82, i32 0, i32 14
  %84 = load ptr, ptr %4, align 8, !tbaa !30
  %85 = getelementptr inbounds nuw %struct.video_data, ptr %84, i32 0, i32 13
  %86 = load i32, ptr %85, align 8, !tbaa !87
  store i32 %86, ptr %12, align 4, !tbaa !32
  %87 = load i32, ptr %12, align 4
  store atomic i32 %87, ptr %83 seq_cst, align 4
  %88 = load ptr, ptr %4, align 8, !tbaa !30
  %89 = getelementptr inbounds nuw %struct.video_data, ptr %88, i32 0, i32 12
  %90 = load i32, ptr %89, align 4, !tbaa !59
  store i32 %90, ptr %5, align 4, !tbaa !32
  %91 = load ptr, ptr %4, align 8, !tbaa !30
  %92 = getelementptr inbounds nuw %struct.video_data, ptr %91, i32 0, i32 28
  %93 = load ptr, ptr %92, align 8, !tbaa !42
  %94 = load ptr, ptr %4, align 8, !tbaa !30
  %95 = getelementptr inbounds nuw %struct.video_data, ptr %94, i32 0, i32 1
  %96 = load i32, ptr %95, align 8, !tbaa !36
  %97 = call i32 (i32, i64, ...) %93(i32 noundef %96, i64 noundef 1074026002, ptr noundef %5)
  %98 = icmp slt i32 %97, 0
  br i1 %98, label %99, label %108

99:                                               ; preds = %81
  %100 = call ptr @__errno_location() #11
  %101 = load i32, ptr %100, align 4, !tbaa !32
  %102 = sub nsw i32 0, %101
  store i32 %102, ptr %7, align 4, !tbaa !32
  %103 = load ptr, ptr %3, align 8, !tbaa !13
  call void @llvm.memset.p0.i64(ptr align 1 %13, i8 0, i64 64, i1 false)
  %104 = getelementptr inbounds [64 x i8], ptr %13, i64 0, i64 0
  %105 = load i32, ptr %7, align 4, !tbaa !32
  %106 = call ptr @av_make_error_string(ptr noundef %104, i64 noundef 64, i32 noundef %105)
  call void (ptr, i32, ptr, ...) @av_log(ptr noundef %103, i32 noundef 16, ptr noundef @.str.94, ptr noundef %106)
  %107 = load i32, ptr %7, align 4, !tbaa !32
  store i32 %107, ptr %2, align 4
  store i32 1, ptr %11, align 4
  br label %109

108:                                              ; preds = %81
  store i32 0, ptr %2, align 4
  store i32 1, ptr %11, align 4
  br label %109

109:                                              ; preds = %108, %99, %75
  call void @llvm.lifetime.end.p0(i64 4, ptr %7) #10
  call void @llvm.lifetime.end.p0(i64 4, ptr %6) #10
  call void @llvm.lifetime.end.p0(i64 4, ptr %5) #10
  call void @llvm.lifetime.end.p0(i64 8, ptr %4) #10
  %110 = load i32, ptr %2, align 4
  ret i32 %110
}