; Function Attrs: nounwind uwtable
define internal fastcc range(i32 -2147483647, -2147483648) i32 @mmap_start(ptr noundef %0) unnamed_addr #0 {
  %2 = alloca i32, align 4
  %3 = alloca [8 x %struct.v4l2_plane], align 16
  %4 = alloca %struct.v4l2_buffer, align 8
  %5 = alloca [64 x i8], align 1
  %6 = alloca [64 x i8], align 1
  %7 = getelementptr inbounds nuw i8, ptr %0, i64 24
  %8 = load ptr, ptr %7, align 8, !tbaa !11
  call void @llvm.lifetime.start.p0(i64 4, ptr nonnull %2) #11
  %9 = getelementptr inbounds nuw i8, ptr %8, i64 64
  %10 = load i32, ptr %9, align 8, !tbaa !101
  %11 = icmp sgt i32 %10, 0
  br i1 %11, label %.lr.ph, label %._crit_edge

.lr.ph:                                           ; preds = %1
  %12 = getelementptr inbounds nuw i8, ptr %4, i64 4
  %13 = getelementptr inbounds nuw i8, ptr %8, i64 60
  %14 = getelementptr inbounds nuw i8, ptr %4, i64 8
  %15 = getelementptr inbounds nuw i8, ptr %4, i64 60
  %16 = getelementptr inbounds nuw i8, ptr %4, i64 64
  %17 = getelementptr inbounds nuw i8, ptr %8, i64 56
  %18 = getelementptr inbounds nuw i8, ptr %4, i64 72
  %19 = getelementptr inbounds nuw i8, ptr %4, i64 76
  %20 = getelementptr inbounds nuw i8, ptr %4, i64 80
  %21 = getelementptr inbounds nuw i8, ptr %4, i64 84
  %22 = getelementptr inbounds nuw i8, ptr %8, i64 168
  %23 = getelementptr inbounds nuw i8, ptr %8, i64 8
  br label %24

24:                                               ; preds = %.lr.ph, %38
  %.02430 = phi i32 [ 0, %.lr.ph ], [ %39, %38 ]
  call void @llvm.lifetime.start.p0(i64 512, ptr nonnull %3) #11
  call void @llvm.lifetime.start.p0(i64 88, ptr nonnull %4) #11
  store i32 %.02430, ptr %4, align 8, !tbaa !100
  %25 = load i32, ptr %13, align 4, !tbaa !40
  store i32 %25, ptr %12, align 4, !tbaa !91
  call void @llvm.memset.p0.i64(ptr noundef nonnull align 8 dereferenceable(52) %14, i8 0, i64 52, i1 false)
  store i32 1, ptr %15, align 4, !tbaa !95
  %26 = load i32, ptr %17, align 8, !tbaa !96
  %.not = icmp eq i32 %26, 0
  %27 = select i1 %.not, ptr null, ptr %3
  store ptr %27, ptr %16, align 8, !tbaa !55
  %28 = select i1 %.not, i32 0, i32 8
  store i32 %28, ptr %18, align 8, !tbaa !97
  store i32 0, ptr %19, align 4, !tbaa !158
  store i32 0, ptr %20, align 8
  store i32 0, ptr %21, align 4
  %29 = load ptr, ptr %22, align 8, !tbaa !34
  %30 = load i32, ptr %23, align 8, !tbaa !28
  %31 = call i32 (i32, i64, ...) %29(i32 noundef %30, i64 noundef 3227014671, ptr noundef nonnull %4) #11
  %32 = icmp sgt i32 %31, -1
  br i1 %32, label %38, label %33

33:                                               ; preds = %24
  %34 = tail call ptr @__errno_location() #12
  %35 = load i32, ptr %34, align 4, !tbaa !26
  %36 = sub nsw i32 0, %35
  call void @llvm.memset.p0.i64(ptr noundef nonnull align 1 dereferenceable(64) %5, i8 0, i64 64, i1 false)
  %37 = call i32 @av_strerror(i32 noundef range(i32 -2147483647, -2147483648) %36, ptr noundef nonnull %5, i64 noundef 64) #11
  call void (ptr, i32, ptr, ...) @av_log(ptr noundef %0, i32 noundef 16, ptr noundef nonnull @.str.93, ptr noundef nonnull %5) #11
  call void @llvm.lifetime.end.p0(i64 88, ptr nonnull %4) #11
  call void @llvm.lifetime.end.p0(i64 512, ptr nonnull %3) #11
  br label %56

38:                                               ; preds = %24
  call void @llvm.lifetime.end.p0(i64 88, ptr nonnull %4) #11
  call void @llvm.lifetime.end.p0(i64 512, ptr nonnull %3) #11
  %39 = add nuw nsw i32 %.02430, 1
  %40 = load i32, ptr %9, align 8, !tbaa !101
  %41 = icmp slt i32 %39, %40
  br i1 %41, label %24, label %._crit_edge, !llvm.loop !161

._crit_edge:                                      ; preds = %38, %1
  %.lcssa = phi i32 [ %10, %1 ], [ %40, %38 ]
  %42 = getelementptr inbounds nuw i8, ptr %8, i64 68
  store atomic i32 %.lcssa, ptr %42 seq_cst, align 4
  %43 = getelementptr inbounds nuw i8, ptr %8, i64 60
  %44 = load i32, ptr %43, align 4, !tbaa !40
  store i32 %44, ptr %2, align 4, !tbaa !26
  %45 = getelementptr inbounds nuw i8, ptr %8, i64 168
  %46 = load ptr, ptr %45, align 8, !tbaa !34
  %47 = getelementptr inbounds nuw i8, ptr %8, i64 8
  %48 = load i32, ptr %47, align 8, !tbaa !28
  %49 = call i32 (i32, i64, ...) %46(i32 noundef %48, i64 noundef 1074026002, ptr noundef nonnull %2) #11
  %50 = icmp slt i32 %49, 0
  br i1 %50, label %51, label %56

51:                                               ; preds = %._crit_edge
  %52 = tail call ptr @__errno_location() #12
  %53 = load i32, ptr %52, align 4, !tbaa !26
  %54 = sub nsw i32 0, %53
  call void @llvm.memset.p0.i64(ptr noundef nonnull align 1 dereferenceable(64) %6, i8 0, i64 64, i1 false)
  %55 = call i32 @av_strerror(i32 noundef range(i32 -2147483647, -2147483648) %54, ptr noundef nonnull %6, i64 noundef 64) #11
  call void (ptr, i32, ptr, ...) @av_log(ptr noundef %0, i32 noundef 16, ptr noundef nonnull @.str.94, ptr noundef nonnull %6) #11
  br label %56

56:                                               ; preds = %33, %._crit_edge, %51
  %.2 = phi i32 [ %36, %33 ], [ %54, %51 ], [ 0, %._crit_edge ]
  call void @llvm.lifetime.end.p0(i64 4, ptr nonnull %2) #11
  ret i32 %.2
}